; Function Attrs: nounwind uwtable
define dso_local i32 @task_cgroup_memory_create(ptr noundef %0) local_unnamed_addr #0 {
  %2 = alloca i32, align 4
  call void @llvm.lifetime.start.p0(i64 4, ptr nonnull %2) #5
  %3 = tail call i32 @cgroup_g_step_create(i32 noundef 2, ptr noundef %0) #5
  %.not = icmp eq i32 %3, 0
  br i1 %.not, label %4, label %19

4:                                                ; preds = %1
  %5 = getelementptr inbounds nuw i8, ptr %0, i64 256
  %6 = load i64, ptr %5, align 8
  %7 = tail call fastcc i32 @_memcg_initialize(i64 noundef %6, i1 noundef zeroext false)
  %.not6 = icmp eq i32 %7, 0
  br i1 %.not6, label %8, label %19

8:                                                ; preds = %4
  %9 = getelementptr inbounds nuw i8, ptr %0, i64 264
  %10 = load i64, ptr %9, align 8
  %11 = tail call fastcc i32 @_memcg_initialize(i64 noundef %10, i1 noundef zeroext true)
  %.not7 = icmp eq i32 %11, 0
  br i1 %.not7, label %12, label %19

12:                                               ; preds = %8
  %13 = tail call i32 @cgroup_g_step_start_oom_mgr(ptr noundef nonnull %0) #5
  %14 = icmp eq i32 %13, 0
  br i1 %14, label %15, label %16

15:                                               ; preds = %12
  store i1 true, ptr @oom_mgr_started, align 1
  br label %16

16:                                               ; preds = %15, %12
  %17 = tail call i32 @getpid() #5
  store i32 %17, ptr %2, align 4
  %18 = call i32 @cgroup_g_step_addto(i32 noundef 2, ptr noundef nonnull %2, i32 noundef 1) #5
  br label %19

19:                                               ; preds = %8, %4, %1, %16
  %.0 = phi i32 [ %18, %16 ], [ -1, %1 ], [ -1, %4 ], [ -1, %8 ]
  call void @llvm.lifetime.end.p0(i64 4, ptr nonnull %2) #5
  ret i32 %.0
}